; ModuleID = '37/45.c'
source_filename = "37/45.c"
target datalayout = "e-m:e-p270:32:32-p271:32:32-p272:64:64-i64:64-f80:128-n8:16:32:64-S128"
target triple = "x86_64-pc-linux-gnu"

@.str = private unnamed_addr constant [4 x i8] c"%d\0A\00", align 1
@.str.1 = private unnamed_addr constant [4 x i8] c"%c\0A\00", align 1
@.str.2 = private unnamed_addr constant [4 x i8] c"no\0A\00", align 1

; Function Attrs: noinline nounwind uwtable
define dso_local i32 @main(i32 %0, i8** %1) #0 {
  %3 = alloca i32, align 4
  %4 = alloca i32, align 4
  %5 = alloca i8**, align 8
  %6 = alloca [100000 x i8], align 16
  %7 = alloca i32, align 4
  %8 = alloca i32, align 4
  %9 = alloca i32, align 4
  %10 = alloca i32, align 4
  %11 = alloca i32, align 4
  store i32 0, i32* %3, align 4
  store i32 %0, i32* %4, align 4
  store i8** %1, i8*** %5, align 8
  %12 = call i32 (i8*, ...) @__isoc99_scanf(i8* getelementptr inbounds ([4 x i8], [4 x i8]* @.str, i64 0, i64 0), i32* %11)
  store i32 1, i32* %9, align 4
  br label %13

13:                                               ; preds = %77, %2
  %14 = load i32, i32* %9, align 4
  %15 = load i32, i32* %11, align 4
  %16 = icmp sle i32 %14, %15
  br i1 %16, label %17, label %80

17:                                               ; preds = %13
  %18 = getelementptr inbounds [100000 x i8], [100000 x i8]* %6, i64 0, i64 0
  %19 = call i32 (i8*, ...) bitcast (i32 (...)* @gets to i32 (i8*, ...)*)(i8* %18)
  store i32 0, i32* %7, align 4
  br label %20

20:                                               ; preds = %68, %17
  %21 = load i32, i32* %7, align 4
  %22 = sext i32 %21 to i64
  %23 = getelementptr inbounds [100000 x i8], [100000 x i8]* %6, i64 0, i64 %22
  %24 = load i8, i8* %23, align 1
  %25 = sext i8 %24 to i32
  %26 = icmp ne i32 %25, 0
  br i1 %26, label %27, label %71

27:                                               ; preds = %20
  store i32 1, i32* %10, align 4
  store i32 0, i32* %8, align 4
  br label %28

28:                                               ; preds = %54, %27
  %29 = load i32, i32* %8, align 4
  %30 = sext i32 %29 to i64
  %31 = getelementptr inbounds [100000 x i8], [100000 x i8]* %6, i64 0, i64 %30
  %32 = load i8, i8* %31, align 1
  %33 = sext i8 %32 to i32
  %34 = icmp ne i32 %33, 0
  br i1 %34, label %35, label %57

35:                                               ; preds = %28
  %36 = load i32, i32* %7, align 4
  %37 = load i32, i32* %8, align 4
  %38 = icmp ne i32 %36, %37
  br i1 %38, label %39, label %53

39:                                               ; preds = %35
  %40 = load i32, i32* %7, align 4
  %41 = sext i32 %40 to i64
  %42 = getelementptr inbounds [100000 x i8], [100000 x i8]* %6, i64 0, i64 %41
  %43 = load i8, i8* %42, align 1
  %44 = sext i8 %43 to i32
  %45 = load i32, i32* %8, align 4
  %46 = sext i32 %45 to i64
  %47 = getelementptr inbounds [100000 x i8], [100000 x i8]* %6, i64 0, i64 %46
  %48 = load i8, i8* %47, align 1
  %49 = sext i8 %48 to i32
  %50 = icmp eq i32 %44, %49
  br i1 %50, label %51, label %52

51:                                               ; preds = %39
  store i32 0, i32* %10, align 4
  br label %57

52:                                               ; preds = %39
  br label %53

53:                                               ; preds = %52, %35
  br label %54

54:                                               ; preds = %53
  %55 = load i32, i32* %8, align 4
  %56 = add nsw i32 %55, 1
  store i32 %56, i32* %8, align 4
  br label %28

57:                                               ; preds = %51, %28
  %58 = load i32, i32* %10, align 4
  %59 = icmp ne i32 %58, 0
  br i1 %59, label %60, label %67

60:                                               ; preds = %57
  %61 = load i32, i32* %7, align 4
  %62 = sext i32 %61 to i64
  %63 = getelementptr inbounds [100000 x i8], [100000 x i8]* %6, i64 0, i64 %62
  %64 = load i8, i8* %63, align 1
  %65 = sext i8 %64 to i32
  %66 = call i32 (i8*, ...) @printf(i8* getelementptr inbounds ([4 x i8], [4 x i8]* @.str.1, i64 0, i64 0), i32 %65)
  br label %71

67:                                               ; preds = %57
  br label %68

68:                                               ; preds = %67
  %69 = load i32, i32* %7, align 4
  %70 = add nsw i32 %69, 1
  store i32 %70, i32* %7, align 4
  br label %20

71:                                               ; preds = %60, %20
  %72 = load i32, i32* %10, align 4
  %73 = icmp ne i32 %72, 0
  br i1 %73, label %76, label %74

74:                                               ; preds = %71
  %75 = call i32 (i8*, ...) @printf(i8* getelementptr inbounds ([4 x i8], [4 x i8]* @.str.2, i64 0, i64 0))
  br label %76

76:                                               ; preds = %74, %71
  br label %77

77:                                               ; preds = %76
  %78 = load i32, i32* %9, align 4
  %79 = add nsw i32 %78, 1
  store i32 %79, i32* %9, align 4
  br label %13

80:                                               ; preds = %13
  ret i32 0
}

declare dso_local i32 @__isoc99_scanf(i8*, ...) #1

declare dso_local i32 @gets(...) #1

declare dso_local i32 @printf(i8*, ...) #1


!llvm.module.flags = !{!0}
!llvm.ident = !{!1}

!0 = !{i32 1, !"wchar_size", i32 4}
!1 = !{!"clang version 10.0.0-4ubuntu1 "}
