; ModuleID = 'source-C-CXX/36/45.c'
source_filename = "source-C-CXX/36/45.c"
target datalayout = "e-m:e-p270:32:32-p271:32:32-p272:64:64-i64:64-f80:128-n8:16:32:64-S128"
target triple = "x86_64-pc-linux-gnu"

@.str = private unnamed_addr constant [4 x i8] c"%d\0A\00", align 1
@.str.1 = private unnamed_addr constant [4 x i8] c"%c\0A\00", align 1
@str = private unnamed_addr constant [3 x i8] c"no\00", align 1

; Function Attrs: nounwind sspstrong uwtable
define dso_local i32 @main(i32 %0, i8** nocapture readnone %1) local_unnamed_addr #0 {
  %3 = alloca [100000 x i8], align 16
  %4 = alloca i32, align 4
  %5 = getelementptr inbounds [100000 x i8], [100000 x i8]* %3, i64 0, i64 0
  call void @llvm.lifetime.start.p0i8(i64 100000, i8* nonnull %5) #5
  %6 = bitcast i32* %4 to i8*
  call void @llvm.lifetime.start.p0i8(i64 4, i8* nonnull %6) #5
  %7 = call i32 (i8*, ...) @__isoc99_scanf(i8* getelementptr inbounds ([4 x i8], [4 x i8]* @.str, i64 0, i64 0), i32* nonnull %4)
  %8 = load i32, i32* %4, align 4, !tbaa !5
  %9 = icmp slt i32 %8, 1
  br i1 %9, label %47, label %10

10:                                               ; preds = %2, %42
  %11 = phi i32 [ %43, %42 ], [ undef, %2 ]
  %12 = phi i32 [ %44, %42 ], [ 1, %2 ]
  %13 = call i32 (i8*, ...) bitcast (i32 (...)* @gets to i32 (i8*, ...)*)(i8* nonnull %5) #5
  %14 = load i8, i8* %5, align 16
  %15 = icmp eq i8 %14, 0
  br i1 %15, label %38, label %16

16:                                               ; preds = %10, %33
  %17 = phi i64 [ %34, %33 ], [ 0, %10 ]
  %18 = phi i8 [ %36, %33 ], [ %14, %10 ]
  br label %23

19:                                               ; preds = %23
  %20 = getelementptr inbounds [100000 x i8], [100000 x i8]* %3, i64 0, i64 %29
  %21 = load i8, i8* %20, align 1, !tbaa !9
  %22 = icmp eq i8 %21, 0
  br i1 %22, label %30, label %23, !llvm.loop !10

23:                                               ; preds = %16, %19
  %24 = phi i64 [ 0, %16 ], [ %29, %19 ]
  %25 = phi i8 [ %14, %16 ], [ %21, %19 ]
  %26 = icmp ne i64 %17, %24
  %27 = icmp eq i8 %18, %25
  %28 = select i1 %26, i1 %27, i1 false
  %29 = add nuw i64 %24, 1
  br i1 %28, label %33, label %19

30:                                               ; preds = %19
  %31 = sext i8 %18 to i32
  %32 = call i32 (i8*, ...) @printf(i8* nonnull dereferenceable(1) getelementptr inbounds ([4 x i8], [4 x i8]* @.str.1, i64 0, i64 0), i32 %31)
  br label %42

33:                                               ; preds = %23
  %34 = add nuw i64 %17, 1
  %35 = getelementptr inbounds [100000 x i8], [100000 x i8]* %3, i64 0, i64 %34
  %36 = load i8, i8* %35, align 1, !tbaa !9
  %37 = icmp eq i8 %36, 0
  br i1 %37, label %40, label %16, !llvm.loop !12

38:                                               ; preds = %10
  %39 = icmp eq i32 %11, 0
  br i1 %39, label %40, label %42

40:                                               ; preds = %33, %38
  %41 = call i32 @puts(i8* nonnull dereferenceable(1) getelementptr inbounds ([3 x i8], [3 x i8]* @str, i64 0, i64 0))
  br label %42

42:                                               ; preds = %30, %38, %40
  %43 = phi i32 [ 1, %30 ], [ %11, %38 ], [ 0, %40 ]
  %44 = add nuw nsw i32 %12, 1
  %45 = load i32, i32* %4, align 4, !tbaa !5
  %46 = icmp slt i32 %12, %45
  br i1 %46, label %10, label %47, !llvm.loop !13

47:                                               ; preds = %42, %2
  call void @llvm.lifetime.end.p0i8(i64 4, i8* nonnull %6) #5
  call void @llvm.lifetime.end.p0i8(i64 100000, i8* nonnull %5) #5
  ret i32 0
}

; Function Attrs: argmemonly mustprogress nofree nosync nounwind willreturn
declare void @llvm.lifetime.start.p0i8(i64 immarg, i8* nocapture) #1

; Function Attrs: nofree nounwind
declare noundef i32 @__isoc99_scanf(i8* nocapture noundef readonly, ...) local_unnamed_addr #2

declare i32 @gets(...) local_unnamed_addr #3

; Function Attrs: nofree nounwind
declare noundef i32 @printf(i8* nocapture noundef readonly, ...) local_unnamed_addr #2

; Function Attrs: argmemonly mustprogress nofree nosync nounwind willreturn
declare void @llvm.lifetime.end.p0i8(i64 immarg, i8* nocapture) #1

; Function Attrs: nofree nounwind
declare noundef i32 @puts(i8* nocapture noundef readonly) local_unnamed_addr #4


!llvm.module.flags = !{!0, !1, !2, !3}
!llvm.ident = !{!4}

!0 = !{i32 1, !"wchar_size", i32 4}
!1 = !{i32 7, !"PIC Level", i32 2}
!2 = !{i32 7, !"PIE Level", i32 2}
!3 = !{i32 7, !"uwtable", i32 1}
!4 = !{!"clang version 13.0.0"}
!5 = !{!6, !6, i64 0}
!6 = !{!"int", !7, i64 0}
!7 = !{!"omnipotent char", !8, i64 0}
!8 = !{!"Simple C/C++ TBAA"}
!9 = !{!7, !7, i64 0}
!10 = distinct !{!10, !11}
!11 = !{!"llvm.loop.mustprogress"}
!12 = distinct !{!12, !11}
!13 = distinct !{!13, !11}
